target datalayout = "e-m:e-p270:32:32-p271:32:32-p272:64:64-i64:64-i128:128-f80:128-n8:16:32:64-S128"
target triple = "x86_64-unknown-linux-gnu"

%struct.QEnumLookup = type { ptr, ptr, i32 }
%struct.q_obj_GuestPanicInformation_base = type { i32 }
%struct.GuestPanicInformation = type { i32, %union.anon }
%union.anon = type { %struct.GuestPanicInformationHyperV }
%struct.GuestPanicInformationHyperV = type { i64, i64, i64, i64, i64 }
%struct.GuestPanicInformationS390 = type { i32, i64, i64, i32 }

@.str.6 = private unnamed_addr constant [7 x i8] c"reason\00", align 1
@GuestPanicInformationType_lookup = external constant %struct.QEnumLookup, align 8
@.str.13 = private unnamed_addr constant [5 x i8] c"type\00", align 1
@.str.14 = private unnamed_addr constant [5 x i8] c"arg1\00", align 1
@.str.15 = private unnamed_addr constant [5 x i8] c"arg2\00", align 1
@.str.16 = private unnamed_addr constant [5 x i8] c"arg3\00", align 1
@.str.17 = private unnamed_addr constant [5 x i8] c"arg4\00", align 1
@.str.18 = private unnamed_addr constant [5 x i8] c"arg5\00", align 1
@S390CrashReason_lookup = external constant %struct.QEnumLookup, align 8
@.str.19 = private unnamed_addr constant [5 x i8] c"core\00", align 1
@.str.20 = private unnamed_addr constant [9 x i8] c"psw-mask\00", align 1
@.str.21 = private unnamed_addr constant [9 x i8] c"psw-addr\00", align 1

; Function Attrs: nounwind sspstrong uwtable
define dso_local zeroext i1 @visit_type_S390CrashReason(ptr noundef %v, ptr noundef %name, ptr noundef %obj, ptr noundef %errp) #0 {
entry:
  %v.addr = alloca ptr, align 8
  %name.addr = alloca ptr, align 8
  %obj.addr = alloca ptr, align 8
  %errp.addr = alloca ptr, align 8
  %value = alloca i32, align 4
  %ok = alloca i8, align 1
  store ptr %v, ptr %v.addr, align 8
  store ptr %name, ptr %name.addr, align 8
  store ptr %obj, ptr %obj.addr, align 8
  store ptr %errp, ptr %errp.addr, align 8
  %0 = load ptr, ptr %obj.addr, align 8
  %1 = load i32, ptr %0, align 4
  store i32 %1, ptr %value, align 4
  %2 = load ptr, ptr %v.addr, align 8
  %3 = load ptr, ptr %name.addr, align 8
  %4 = load ptr, ptr %errp.addr, align 8
  %call = call zeroext i1 @visit_type_enum(ptr noundef %2, ptr noundef %3, ptr noundef %value, ptr noundef @S390CrashReason_lookup, ptr noundef %4)
  %frombool = zext i1 %call to i8
  store i8 %frombool, ptr %ok, align 1
  %5 = load i32, ptr %value, align 4
  %6 = load ptr, ptr %obj.addr, align 8
  store i32 %5, ptr %6, align 4
  %7 = load i8, ptr %ok, align 1
  %tobool = trunc i8 %7 to i1
  ret i1 %tobool
}

; Function Attrs: nounwind sspstrong uwtable
define dso_local zeroext i1 @visit_type_GuestPanicInformationType(ptr noundef %v, ptr noundef %name, ptr noundef %obj, ptr noundef %errp) #0 {
entry:
  %v.addr = alloca ptr, align 8
  %name.addr = alloca ptr, align 8
  %obj.addr = alloca ptr, align 8
  %errp.addr = alloca ptr, align 8
  %value = alloca i32, align 4
  %ok = alloca i8, align 1
  store ptr %v, ptr %v.addr, align 8
  store ptr %name, ptr %name.addr, align 8
  store ptr %obj, ptr %obj.addr, align 8
  store ptr %errp, ptr %errp.addr, align 8
  %0 = load ptr, ptr %obj.addr, align 8
  %1 = load i32, ptr %0, align 4
  store i32 %1, ptr %value, align 4
  %2 = load ptr, ptr %v.addr, align 8
  %3 = load ptr, ptr %name.addr, align 8
  %4 = load ptr, ptr %errp.addr, align 8
  %call = call zeroext i1 @visit_type_enum(ptr noundef %2, ptr noundef %3, ptr noundef %value, ptr noundef @GuestPanicInformationType_lookup, ptr noundef %4)
  %frombool = zext i1 %call to i8
  store i8 %frombool, ptr %ok, align 1
  %5 = load i32, ptr %value, align 4
  %6 = load ptr, ptr %obj.addr, align 8
  store i32 %5, ptr %6, align 4
  %7 = load i8, ptr %ok, align 1
  %tobool = trunc i8 %7 to i1
  ret i1 %tobool
}

; Function Attrs: nounwind sspstrong uwtable
define dso_local zeroext i1 @visit_type_GuestPanicInformationS390_members(ptr noundef %v, ptr noundef %obj, ptr noundef %errp) #0 {
entry:
  %retval = alloca i1, align 1
  %v.addr = alloca ptr, align 8
  %obj.addr = alloca ptr, align 8
  %errp.addr = alloca ptr, align 8
  store ptr %v, ptr %v.addr, align 8
  store ptr %obj, ptr %obj.addr, align 8
  store ptr %errp, ptr %errp.addr, align 8
  %0 = load ptr, ptr %v.addr, align 8
  %1 = load ptr, ptr %obj.addr, align 8
  %core = getelementptr inbounds %struct.GuestPanicInformationS390, ptr %1, i32 0, i32 0
  %2 = load ptr, ptr %errp.addr, align 8
  %call = call zeroext i1 @visit_type_uint32(ptr noundef %0, ptr noundef @.str.19, ptr noundef %core, ptr noundef %2)
  br i1 %call, label %if.end, label %if.then

if.then:                                          ; preds = %entry
  store i1 false, ptr %retval, align 1
  br label %return

if.end:                                           ; preds = %entry
  %3 = load ptr, ptr %v.addr, align 8
  %4 = load ptr, ptr %obj.addr, align 8
  %psw_mask = getelementptr inbounds %struct.GuestPanicInformationS390, ptr %4, i32 0, i32 1
  %5 = load ptr, ptr %errp.addr, align 8
  %call1 = call zeroext i1 @visit_type_uint64(ptr noundef %3, ptr noundef @.str.20, ptr noundef %psw_mask, ptr noundef %5)
  br i1 %call1, label %if.end3, label %if.then2

if.then2:                                         ; preds = %if.end
  store i1 false, ptr %retval, align 1
  br label %return

if.end3:                                          ; preds = %if.end
  %6 = load ptr, ptr %v.addr, align 8
  %7 = load ptr, ptr %obj.addr, align 8
  %psw_addr = getelementptr inbounds %struct.GuestPanicInformationS390, ptr %7, i32 0, i32 2
  %8 = load ptr, ptr %errp.addr, align 8
  %call4 = call zeroext i1 @visit_type_uint64(ptr noundef %6, ptr noundef @.str.21, ptr noundef %psw_addr, ptr noundef %8)
  br i1 %call4, label %if.end6, label %if.then5

if.then5:                                         ; preds = %if.end3
  store i1 false, ptr %retval, align 1
  br label %return

if.end6:                                          ; preds = %if.end3
  %9 = load ptr, ptr %v.addr, align 8
  %10 = load ptr, ptr %obj.addr, align 8
  %reason = getelementptr inbounds %struct.GuestPanicInformationS390, ptr %10, i32 0, i32 3
  %11 = load ptr, ptr %errp.addr, align 8
  %call7 = call zeroext i1 @visit_type_S390CrashReason(ptr noundef %9, ptr noundef @.str.6, ptr noundef %reason, ptr noundef %11)
  br i1 %call7, label %if.end9, label %if.then8

if.then8:                                         ; preds = %if.end6
  store i1 false, ptr %retval, align 1
  br label %return

if.end9:                                          ; preds = %if.end6
  store i1 true, ptr %retval, align 1
  br label %return

return:                                           ; preds = %if.end9, %if.then8, %if.then5, %if.then2, %if.then
  %12 = load i1, ptr %retval, align 1
  ret i1 %12
}

; Function Attrs: nounwind sspstrong uwtable
define dso_local zeroext i1 @visit_type_GuestPanicInformationHyperV_members(ptr noundef %v, ptr noundef %obj, ptr noundef %errp) #0 {
entry:
  %retval = alloca i1, align 1
  %v.addr = alloca ptr, align 8
  %obj.addr = alloca ptr, align 8
  %errp.addr = alloca ptr, align 8
  store ptr %v, ptr %v.addr, align 8
  store ptr %obj, ptr %obj.addr, align 8
  store ptr %errp, ptr %errp.addr, align 8
  %0 = load ptr, ptr %v.addr, align 8
  %1 = load ptr, ptr %obj.addr, align 8
  %arg1 = getelementptr inbounds %struct.GuestPanicInformationHyperV, ptr %1, i32 0, i32 0
  %2 = load ptr, ptr %errp.addr, align 8
  %call = call zeroext i1 @visit_type_uint64(ptr noundef %0, ptr noundef @.str.14, ptr noundef %arg1, ptr noundef %2)
  br i1 %call, label %if.end, label %if.then

if.then:                                          ; preds = %entry
  store i1 false, ptr %retval, align 1
  br label %return

if.end:                                           ; preds = %entry
  %3 = load ptr, ptr %v.addr, align 8
  %4 = load ptr, ptr %obj.addr, align 8
  %arg2 = getelementptr inbounds %struct.GuestPanicInformationHyperV, ptr %4, i32 0, i32 1
  %5 = load ptr, ptr %errp.addr, align 8
  %call1 = call zeroext i1 @visit_type_uint64(ptr noundef %3, ptr noundef @.str.15, ptr noundef %arg2, ptr noundef %5)
  br i1 %call1, label %if.end3, label %if.then2

if.then2:                                         ; preds = %if.end
  store i1 false, ptr %retval, align 1
  br label %return

if.end3:                                          ; preds = %if.end
  %6 = load ptr, ptr %v.addr, align 8
  %7 = load ptr, ptr %obj.addr, align 8
  %arg3 = getelementptr inbounds %struct.GuestPanicInformationHyperV, ptr %7, i32 0, i32 2
  %8 = load ptr, ptr %errp.addr, align 8
  %call4 = call zeroext i1 @visit_type_uint64(ptr noundef %6, ptr noundef @.str.16, ptr noundef %arg3, ptr noundef %8)
  br i1 %call4, label %if.end6, label %if.then5

if.then5:                                         ; preds = %if.end3
  store i1 false, ptr %retval, align 1
  br label %return

if.end6:                                          ; preds = %if.end3
  %9 = load ptr, ptr %v.addr, align 8
  %10 = load ptr, ptr %obj.addr, align 8
  %arg4 = getelementptr inbounds %struct.GuestPanicInformationHyperV, ptr %10, i32 0, i32 3
  %11 = load ptr, ptr %errp.addr, align 8
  %call7 = call zeroext i1 @visit_type_uint64(ptr noundef %9, ptr noundef @.str.17, ptr noundef %arg4, ptr noundef %11)
  br i1 %call7, label %if.end9, label %if.then8

if.then8:                                         ; preds = %if.end6
  store i1 false, ptr %retval, align 1
  br label %return

if.end9:                                          ; preds = %if.end6
  %12 = load ptr, ptr %v.addr, align 8
  %13 = load ptr, ptr %obj.addr, align 8
  %arg5 = getelementptr inbounds %struct.GuestPanicInformationHyperV, ptr %13, i32 0, i32 4
  %14 = load ptr, ptr %errp.addr, align 8
  %call10 = call zeroext i1 @visit_type_uint64(ptr noundef %12, ptr noundef @.str.18, ptr noundef %arg5, ptr noundef %14)
  br i1 %call10, label %if.end12, label %if.then11

if.then11:                                        ; preds = %if.end9
  store i1 false, ptr %retval, align 1
  br label %return

if.end12:                                         ; preds = %if.end9
  store i1 true, ptr %retval, align 1
  br label %return

return:                                           ; preds = %if.end12, %if.then11, %if.then8, %if.then5, %if.then2, %if.then
  %15 = load i1, ptr %retval, align 1
  ret i1 %15
}

; Function Attrs: nounwind sspstrong uwtable
define dso_local zeroext i1 @visit_type_q_obj_GuestPanicInformation_base_members(ptr noundef %v, ptr noundef %obj, ptr noundef %errp) #0 {
entry:
  %retval = alloca i1, align 1
  %v.addr = alloca ptr, align 8
  %obj.addr = alloca ptr, align 8
  %errp.addr = alloca ptr, align 8
  store ptr %v, ptr %v.addr, align 8
  store ptr %obj, ptr %obj.addr, align 8
  store ptr %errp, ptr %errp.addr, align 8
  %0 = load ptr, ptr %v.addr, align 8
  %1 = load ptr, ptr %obj.addr, align 8
  %type = getelementptr inbounds %struct.q_obj_GuestPanicInformation_base, ptr %1, i32 0, i32 0
  %2 = load ptr, ptr %errp.addr, align 8
  %call = call zeroext i1 @visit_type_GuestPanicInformationType(ptr noundef %0, ptr noundef @.str.13, ptr noundef %type, ptr noundef %2)
  br i1 %call, label %if.end, label %if.then

if.then:                                          ; preds = %entry
  store i1 false, ptr %retval, align 1
  br label %return

if.end:                                           ; preds = %entry
  store i1 true, ptr %retval, align 1
  br label %return

return:                                           ; preds = %if.end, %if.then
  %3 = load i1, ptr %retval, align 1
  ret i1 %3
}

; Function Attrs: nounwind sspstrong uwtable
define dso_local zeroext i1 @visit_type_GuestPanicInformation_members(ptr noundef %v, ptr noundef %obj, ptr noundef %errp) #0 {
entry:
  %retval = alloca i1, align 1
  %v.addr = alloca ptr, align 8
  %obj.addr = alloca ptr, align 8
  %errp.addr = alloca ptr, align 8
  store ptr %v, ptr %v.addr, align 8
  store ptr %obj, ptr %obj.addr, align 8
  store ptr %errp, ptr %errp.addr, align 8
  %0 = load ptr, ptr %v.addr, align 8
  %1 = load ptr, ptr %obj.addr, align 8
  %2 = load ptr, ptr %errp.addr, align 8
  %call = call zeroext i1 @visit_type_q_obj_GuestPanicInformation_base_members(ptr noundef %0, ptr noundef %1, ptr noundef %2)
  br i1 %call, label %if.end, label %if.then

if.then:                                          ; preds = %entry
  store i1 false, ptr %retval, align 1
  br label %return

if.end:                                           ; preds = %entry
  %3 = load ptr, ptr %obj.addr, align 8
  %type = getelementptr inbounds %struct.GuestPanicInformation, ptr %3, i32 0, i32 0
  %4 = load i32, ptr %type, align 8
  switch i32 %4, label %sw.default [
    i32 0, label %sw.bb
    i32 1, label %sw.bb2
  ]

sw.bb:                                            ; preds = %if.end
  %5 = load ptr, ptr %v.addr, align 8
  %6 = load ptr, ptr %obj.addr, align 8
  %u = getelementptr inbounds %struct.GuestPanicInformation, ptr %6, i32 0, i32 1
  %7 = load ptr, ptr %errp.addr, align 8
  %call1 = call zeroext i1 @visit_type_GuestPanicInformationHyperV_members(ptr noundef %5, ptr noundef %u, ptr noundef %7)
  store i1 %call1, ptr %retval, align 1
  br label %return

sw.bb2:                                           ; preds = %if.end
  %8 = load ptr, ptr %v.addr, align 8
  %9 = load ptr, ptr %obj.addr, align 8
  %u3 = getelementptr inbounds %struct.GuestPanicInformation, ptr %9, i32 0, i32 1
  %10 = load ptr, ptr %errp.addr, align 8
  %call4 = call zeroext i1 @visit_type_GuestPanicInformationS390_members(ptr noundef %8, ptr noundef %u3, ptr noundef %10)
  store i1 %call4, ptr %retval, align 1
  br label %return

sw.default:                                       ; preds = %if.end
  call void @abort() #3
  unreachable

return:                                           ; preds = %sw.bb2, %sw.bb, %if.then
  %11 = load i1, ptr %retval, align 1
  ret i1 %11
}