; Function Attrs: nounwind sspstrong uwtable
define dso_local zeroext i1 @visit_type_GuestPanicInformation_members(ptr noundef %v, ptr noundef %obj, ptr noundef %errp) local_unnamed_addr #0 {
entry:
  %value.i.i8 = alloca i32, align 4
  %value.i.i = alloca i32, align 4
  call void @llvm.lifetime.start.p0(i64 4, ptr nonnull %value.i.i)
  %0 = load i32, ptr %obj, align 4
  store i32 %0, ptr %value.i.i, align 4
  %call.i.i = call zeroext i1 @visit_type_enum(ptr noundef %v, ptr noundef nonnull @.str.13, ptr noundef nonnull %value.i.i, ptr noundef nonnull @GuestPanicInformationType_lookup, ptr noundef %errp) #5
  %1 = load i32, ptr %value.i.i, align 4
  store i32 %1, ptr %obj, align 4
  call void @llvm.lifetime.end.p0(i64 4, ptr nonnull %value.i.i)
  br i1 %call.i.i, label %if.end, label %return

if.end:                                           ; preds = %entry
  switch i32 %1, label %sw.default [
    i32 0, label %sw.bb
    i32 1, label %sw.bb2
  ]

sw.bb:                                            ; preds = %if.end
  %u = getelementptr inbounds nuw i8, ptr %obj, i64 8
  %call.i = call zeroext i1 @visit_type_uint64(ptr noundef %v, ptr noundef nonnull @.str.14, ptr noundef nonnull %u, ptr noundef %errp) #5
  br i1 %call.i, label %if.end.i, label %return

if.end.i:                                         ; preds = %sw.bb
  %arg2.i = getelementptr inbounds nuw i8, ptr %obj, i64 16
  %call1.i = call zeroext i1 @visit_type_uint64(ptr noundef %v, ptr noundef nonnull @.str.15, ptr noundef nonnull %arg2.i, ptr noundef %errp) #5
  br i1 %call1.i, label %if.end3.i, label %return

if.end3.i:                                        ; preds = %if.end.i
  %arg3.i = getelementptr inbounds nuw i8, ptr %obj, i64 24
  %call4.i = call zeroext i1 @visit_type_uint64(ptr noundef %v, ptr noundef nonnull @.str.16, ptr noundef nonnull %arg3.i, ptr noundef %errp) #5
  br i1 %call4.i, label %if.end6.i, label %return

if.end6.i:                                        ; preds = %if.end3.i
  %arg4.i = getelementptr inbounds nuw i8, ptr %obj, i64 32
  %call7.i = call zeroext i1 @visit_type_uint64(ptr noundef %v, ptr noundef nonnull @.str.17, ptr noundef nonnull %arg4.i, ptr noundef %errp) #5
  br i1 %call7.i, label %if.end9.i, label %return

if.end9.i:                                        ; preds = %if.end6.i
  %arg5.i = getelementptr inbounds nuw i8, ptr %obj, i64 40
  %call10.i = call zeroext i1 @visit_type_uint64(ptr noundef %v, ptr noundef nonnull @.str.18, ptr noundef nonnull %arg5.i, ptr noundef %errp) #5
  br label %return

sw.bb2:                                           ; preds = %if.end
  %u3 = getelementptr inbounds nuw i8, ptr %obj, i64 8
  %call.i9 = call zeroext i1 @visit_type_uint32(ptr noundef %v, ptr noundef nonnull @.str.19, ptr noundef nonnull %u3, ptr noundef %errp) #5
  br i1 %call.i9, label %if.end.i11, label %return

if.end.i11:                                       ; preds = %sw.bb2
  %psw_mask.i = getelementptr inbounds nuw i8, ptr %obj, i64 16
  %call1.i12 = call zeroext i1 @visit_type_uint64(ptr noundef %v, ptr noundef nonnull @.str.20, ptr noundef nonnull %psw_mask.i, ptr noundef %errp) #5
  br i1 %call1.i12, label %if.end3.i13, label %return

if.end3.i13:                                      ; preds = %if.end.i11
  %psw_addr.i = getelementptr inbounds nuw i8, ptr %obj, i64 24
  %call4.i14 = call zeroext i1 @visit_type_uint64(ptr noundef %v, ptr noundef nonnull @.str.21, ptr noundef nonnull %psw_addr.i, ptr noundef %errp) #5
  br i1 %call4.i14, label %if.end6.i15, label %return

if.end6.i15:                                      ; preds = %if.end3.i13
  %reason.i = getelementptr inbounds nuw i8, ptr %obj, i64 32
  call void @llvm.lifetime.start.p0(i64 4, ptr nonnull %value.i.i8)
  %2 = load i32, ptr %reason.i, align 4
  store i32 %2, ptr %value.i.i8, align 4
  %call.i.i16 = call zeroext i1 @visit_type_enum(ptr noundef %v, ptr noundef nonnull @.str.6, ptr noundef nonnull %value.i.i8, ptr noundef nonnull @S390CrashReason_lookup, ptr noundef %errp) #5
  %3 = load i32, ptr %value.i.i8, align 4
  store i32 %3, ptr %reason.i, align 4
  call void @llvm.lifetime.end.p0(i64 4, ptr nonnull %value.i.i8)
  br label %return

sw.default:                                       ; preds = %if.end
  call void @abort() #6
  unreachable

return:                                           ; preds = %if.end6.i15, %if.end3.i13, %if.end.i11, %sw.bb2, %if.end9.i, %if.end6.i, %if.end3.i, %if.end.i, %sw.bb, %entry
  %retval.0 = phi i1 [ false, %entry ], [ false, %sw.bb ], [ false, %if.end.i ], [ false, %if.end3.i ], [ false, %if.end6.i ], [ %call10.i, %if.end9.i ], [ false, %sw.bb2 ], [ false, %if.end.i11 ], [ false, %if.end3.i13 ], [ %call.i.i16, %if.end6.i15 ]
  ret i1 %retval.0
}